target datalayout = "e-m:e-p270:32:32-p271:32:32-p272:64:64-i64:64-i128:128-f80:128-n8:16:32:64-S128"
target triple = "x86_64-pc-linux-gnu"

; Function Attrs: inlinehint nounwind uwtable
define internal signext i16 @DatumGetInt16(i64 noundef %0) #2 {
  %2 = alloca i64, align 8
  store i64 %0, ptr %2, align 8
  %3 = load i64, ptr %2, align 8
  %4 = trunc i64 %3 to i16
  ret i16 %4
}

; Function Attrs: nounwind uwtable
define internal i32 @btint2fastcmp(i64 noundef %0, i64 noundef %1, ptr noundef %2) #0 {
  %4 = alloca i64, align 8
  %5 = alloca i64, align 8
  %6 = alloca ptr, align 8
  %7 = alloca i16, align 2
  %8 = alloca i16, align 2
  store i64 %0, ptr %4, align 8
  store i64 %1, ptr %5, align 8
  store ptr %2, ptr %6, align 8
  call void @llvm.lifetime.start.p0(i64 2, ptr %7) #4
  %9 = load i64, ptr %4, align 8
  %10 = call signext i16 @DatumGetInt16(i64 noundef %9)
  store i16 %10, ptr %7, align 2
  call void @llvm.lifetime.start.p0(i64 2, ptr %8) #4
  %11 = load i64, ptr %5, align 8
  %12 = call signext i16 @DatumGetInt16(i64 noundef %11)
  store i16 %12, ptr %8, align 2
  %13 = load i16, ptr %7, align 2
  %14 = sext i16 %13 to i32
  %15 = load i16, ptr %8, align 2
  %16 = sext i16 %15 to i32
  %17 = sub i32 %14, %16
  call void @llvm.lifetime.end.p0(i64 2, ptr %8) #4
  call void @llvm.lifetime.end.p0(i64 2, ptr %7) #4
  ret i32 %17
}