; Function Attrs: mustprogress nofree norecurse nosync nounwind willreturn memory(none) uwtable
define internal range(i32 -65535, 65536) i32 @btint2fastcmp(i64 noundef %0, i64 noundef %1, ptr readnone captures(none) %2) #2 {
  %4 = trunc i64 %0 to i32
  %5 = trunc i64 %1 to i32
  %sext = shl i32 %4, 16
  %6 = ashr exact i32 %sext, 16
  %sext4 = shl i32 %5, 16
  %7 = ashr exact i32 %sext4, 16
  %8 = sub nsw i32 %6, %7
  ret i32 %8
}